target datalayout = "e-m:e-p270:32:32-p271:32:32-p272:64:64-i64:64-i128:128-f80:128-n8:16:32:64-S128"
target triple = "x86_64-pc-linux-gnu"

; Function Attrs: nounwind uwtable
define hidden i32 @FixedDiv1_C(i32 noundef %0, i32 noundef %1) #0 {
  %3 = alloca i32, align 4
  %4 = alloca i32, align 4
  store i32 %0, ptr %3, align 4
  store i32 %1, ptr %4, align 4
  %5 = load i32, ptr %3, align 4
  %6 = sext i32 %5 to i64
  %7 = shl i64 %6, 16
  %8 = sub nsw i64 %7, 65537
  %9 = load i32, ptr %4, align 4
  %10 = sub nsw i32 %9, 1
  %11 = sext i32 %10 to i64
  %12 = sdiv i64 %8, %11
  %13 = trunc i64 %12 to i32
  ret i32 %13
}