; Function Attrs: mustprogress nofree norecurse nosync nounwind willreturn memory(none) uwtable
define hidden i32 @FixedDiv1_C(i32 noundef %0, i32 noundef %1) local_unnamed_addr #3 {
  %3 = sext i32 %0 to i64
  %4 = shl nsw i64 %3, 16
  %5 = add nsw i64 %4, -65537
  %6 = add nsw i32 %1, -1
  %7 = sext i32 %6 to i64
  %8 = sdiv i64 %5, %7
  %9 = trunc i64 %8 to i32
  ret i32 %9
}